; Function Attrs: nofree norecurse nosync nounwind memory(argmem: readwrite) uwtable
define internal fastcc void @unpack_gray(ptr noundef readonly captures(none) %0, ptr writeonly captures(none) %.0.val, i32 %.64.val, ptr noundef readonly captures(address_is_null) %1, i32 noundef %2, i32 noundef range(i32 -2147483648, 536870912) %3, i32 noundef %4) unnamed_addr #4 {
  %6 = mul nsw i32 %2, %.64.val
  %7 = sext i32 %6 to i64
  %8 = getelementptr inbounds i8, ptr %.0.val, i64 %7
  %or.cond.i = icmp ugt i32 %3, 268435455
  %9 = shl nuw nsw i32 %3, 3
  %10 = select i1 %or.cond.i, i32 -8, i32 %9
  %or.cond.i.i = icmp ult i32 %10, 2147483135
  %11 = icmp ne ptr %1, null
  %or.cond3.i.i = and i1 %11, %or.cond.i.i
  %12 = add nuw nsw i32 %10, 8
  %13 = select i1 %or.cond3.i.i, i32 %12, i32 8
  %14 = getelementptr inbounds nuw i8, ptr %0, i64 80
  %15 = load i32, ptr %14, align 8, !tbaa !27
  %16 = icmp sgt i32 %15, 0
  br i1 %16, label %.lr.ph, label %._crit_edge

.lr.ph:                                           ; preds = %5
  %17 = sub nsw i32 32, %4
  %wide.trip.count = zext nneg i32 %15 to i64
  br label %18

._crit_edge:                                      ; preds = %18, %5
  ret void

18:                                               ; preds = %.lr.ph, %18
  %indvars.iv = phi i64 [ 0, %.lr.ph ], [ %indvars.iv.next, %18 ]
  %.sroa.5.01 = phi i32 [ 0, %.lr.ph ], [ %28, %18 ]
  %19 = lshr i32 %.sroa.5.01, 3
  %20 = zext nneg i32 %19 to i64
  %21 = getelementptr inbounds nuw i8, ptr %1, i64 %20
  %22 = load i32, ptr %21, align 1, !tbaa !81
  %23 = tail call i32 @llvm.bswap.i32(i32 %22)
  %24 = and i32 %.sroa.5.01, 7
  %25 = shl i32 %23, %24
  %26 = lshr i32 %25, %17
  %27 = add i32 %.sroa.5.01, %4
  %28 = tail call i32 @llvm.umin.i32(i32 %13, i32 %27)
  %29 = trunc i32 %26 to i16
  %30 = getelementptr inbounds nuw i16, ptr %8, i64 %indvars.iv
  store i16 %29, ptr %30, align 2, !tbaa !67
  %indvars.iv.next = add nuw nsw i64 %indvars.iv, 1
  %exitcond.not = icmp eq i64 %indvars.iv.next, %wide.trip.count
  br i1 %exitcond.not, label %._crit_edge, label %18, !llvm.loop !181
}